target datalayout = "e-m:e-p270:32:32-p271:32:32-p272:64:64-i64:64-i128:128-f80:128-n8:16:32:64-S128"
target triple = "x86_64-pc-linux-gnu"

@tcg_env = external global ptr, align 8

; Function Attrs: nounwind sspstrong uwtable
define internal void @expand_3i_vec(i32 noundef %0, i32 noundef %1, i32 noundef %2, i32 noundef %3, i32 noundef %4, i32 noundef %5, i32 noundef %6, i64 noundef %7, i1 noundef zeroext %8, i1 noundef zeroext %9, ptr noundef %10) #0 {
  %12 = alloca i32, align 4
  %13 = alloca i32, align 4
  %14 = alloca i32, align 4
  %15 = alloca i32, align 4
  %16 = alloca i32, align 4
  %17 = alloca i32, align 4
  %18 = alloca i32, align 4
  %19 = alloca i64, align 8
  %20 = alloca i8, align 1
  %21 = alloca i8, align 1
  %22 = alloca ptr, align 8
  %23 = alloca i32, align 4
  %24 = alloca ptr, align 8
  %25 = alloca ptr, align 8
  %26 = alloca ptr, align 8
  store i32 %0, ptr %12, align 4
  store i32 %1, ptr %13, align 4
  store i32 %2, ptr %14, align 4
  store i32 %3, ptr %15, align 4
  store i32 %4, ptr %16, align 4
  store i32 %5, ptr %17, align 4
  store i32 %6, ptr %18, align 4
  store i64 %7, ptr %19, align 8
  %27 = zext i1 %8 to i8
  store i8 %27, ptr %20, align 1
  %28 = zext i1 %9 to i8
  store i8 %28, ptr %21, align 1
  store ptr %10, ptr %22, align 8
  call void @llvm.lifetime.start.p0(i64 4, ptr %23) #10
  store i32 0, ptr %23, align 4
  br label %29

29:                                               ; preds = %85, %11
  %30 = load i32, ptr %23, align 4
  %31 = load i32, ptr %16, align 4
  %32 = icmp ult i32 %30, %31
  br i1 %32, label %34, label %33

33:                                               ; preds = %29
  call void @llvm.lifetime.end.p0(i64 4, ptr %23) #10
  br label %89

34:                                               ; preds = %29
  call void @llvm.lifetime.start.p0(i64 8, ptr %24) #10
  %35 = load i32, ptr %18, align 4
  %36 = call ptr @tcg_temp_new_vec(i32 noundef %35)
  store ptr %36, ptr %24, align 8
  call void @llvm.lifetime.start.p0(i64 8, ptr %25) #10
  %37 = load i32, ptr %18, align 4
  %38 = call ptr @tcg_temp_new_vec(i32 noundef %37)
  store ptr %38, ptr %25, align 8
  call void @llvm.lifetime.start.p0(i64 8, ptr %26) #10
  %39 = load i32, ptr %18, align 4
  %40 = call ptr @tcg_temp_new_vec(i32 noundef %39)
  store ptr %40, ptr %26, align 8
  %41 = load ptr, ptr %24, align 8
  %42 = load ptr, ptr @tcg_env, align 8
  %43 = load i32, ptr %14, align 4
  %44 = load i32, ptr %23, align 4
  %45 = add i32 %43, %44
  %46 = zext i32 %45 to i64
  call void @tcg_gen_ld_vec(ptr noundef %41, ptr noundef %42, i64 noundef %46)
  %47 = load ptr, ptr %25, align 8
  %48 = load ptr, ptr @tcg_env, align 8
  %49 = load i32, ptr %15, align 4
  %50 = load i32, ptr %23, align 4
  %51 = add i32 %49, %50
  %52 = zext i32 %51 to i64
  call void @tcg_gen_ld_vec(ptr noundef %47, ptr noundef %48, i64 noundef %52)
  %53 = load i8, ptr %20, align 1, !range !5, !noundef !6
  %54 = trunc i8 %53 to i1
  br i1 %54, label %55, label %62

55:                                               ; preds = %34
  %56 = load ptr, ptr %26, align 8
  %57 = load ptr, ptr @tcg_env, align 8
  %58 = load i32, ptr %13, align 4
  %59 = load i32, ptr %23, align 4
  %60 = add i32 %58, %59
  %61 = zext i32 %60 to i64
  call void @tcg_gen_ld_vec(ptr noundef %56, ptr noundef %57, i64 noundef %61)
  br label %62

62:                                               ; preds = %55, %34
  %63 = load ptr, ptr %22, align 8
  %64 = load i32, ptr %12, align 4
  %65 = load ptr, ptr %26, align 8
  %66 = load ptr, ptr %24, align 8
  %67 = load ptr, ptr %25, align 8
  %68 = load i64, ptr %19, align 8
  call void %63(i32 noundef %64, ptr noundef %65, ptr noundef %66, ptr noundef %67, i64 noundef %68)
  %69 = load ptr, ptr %26, align 8
  %70 = load ptr, ptr @tcg_env, align 8
  %71 = load i32, ptr %13, align 4
  %72 = load i32, ptr %23, align 4
  %73 = add i32 %71, %72
  %74 = zext i32 %73 to i64
  call void @tcg_gen_st_vec(ptr noundef %69, ptr noundef %70, i64 noundef %74)
  %75 = load i8, ptr %21, align 1, !range !5, !noundef !6
  %76 = trunc i8 %75 to i1
  br i1 %76, label %77, label %84

77:                                               ; preds = %62
  %78 = load ptr, ptr %24, align 8
  %79 = load ptr, ptr @tcg_env, align 8
  %80 = load i32, ptr %14, align 4
  %81 = load i32, ptr %23, align 4
  %82 = add i32 %80, %81
  %83 = zext i32 %82 to i64
  call void @tcg_gen_st_vec(ptr noundef %78, ptr noundef %79, i64 noundef %83)
  br label %84

84:                                               ; preds = %77, %62
  call void @llvm.lifetime.end.p0(i64 8, ptr %26) #10
  call void @llvm.lifetime.end.p0(i64 8, ptr %25) #10
  call void @llvm.lifetime.end.p0(i64 8, ptr %24) #10
  br label %85

85:                                               ; preds = %84
  %86 = load i32, ptr %17, align 4
  %87 = load i32, ptr %23, align 4
  %88 = add i32 %87, %86
  store i32 %88, ptr %23, align 4
  br label %29, !llvm.loop !20

89:                                               ; preds = %33
  ret void
}