; Function Attrs: nounwind sspstrong uwtable
define internal fastcc void @expand_3i_vec(i32 noundef range(i32 0, 256) %0, i32 noundef %1, i32 noundef %2, i32 noundef %3, i32 noundef %4, i32 noundef range(i32 8, 33) %5, i32 noundef range(i32 3, 6) %6, i64 noundef %7, i1 noundef zeroext %8, i1 noundef zeroext %9, ptr noundef readonly captures(none) %10) unnamed_addr #2 {
  %.not = icmp eq i32 %4, 0
  br i1 %.not, label %._crit_edge, label %.lr.ph

.lr.ph:                                           ; preds = %11
  br i1 %8, label %.lr.ph.split.us, label %.lr.ph.split

.lr.ph.split.us:                                  ; preds = %.lr.ph
  br i1 %9, label %.lr.ph.split.us.split.us, label %.lr.ph.split.us.split

.lr.ph.split.us.split.us:                         ; preds = %.lr.ph.split.us, %.lr.ph.split.us.split.us
  %.029.us.us = phi i32 [ %26, %.lr.ph.split.us.split.us ], [ 0, %.lr.ph.split.us ]
  %12 = tail call ptr @tcg_temp_new_vec(i32 noundef %6) #10
  %13 = tail call ptr @tcg_temp_new_vec(i32 noundef %6) #10
  %14 = tail call ptr @tcg_temp_new_vec(i32 noundef %6) #10
  %15 = load ptr, ptr @tcg_env, align 8
  %16 = add i32 %.029.us.us, %2
  %17 = zext i32 %16 to i64
  tail call void @tcg_gen_ld_vec(ptr noundef %12, ptr noundef %15, i64 noundef %17) #10
  %18 = load ptr, ptr @tcg_env, align 8
  %19 = add i32 %.029.us.us, %3
  %20 = zext i32 %19 to i64
  tail call void @tcg_gen_ld_vec(ptr noundef %13, ptr noundef %18, i64 noundef %20) #10
  %21 = load ptr, ptr @tcg_env, align 8
  %22 = add i32 %.029.us.us, %1
  %23 = zext i32 %22 to i64
  tail call void @tcg_gen_ld_vec(ptr noundef %14, ptr noundef %21, i64 noundef %23) #10
  tail call void %10(i32 noundef %0, ptr noundef %14, ptr noundef %12, ptr noundef %13, i64 noundef %7) #10
  %24 = load ptr, ptr @tcg_env, align 8
  tail call void @tcg_gen_st_vec(ptr noundef %14, ptr noundef %24, i64 noundef %23) #10
  %25 = load ptr, ptr @tcg_env, align 8
  tail call void @tcg_gen_st_vec(ptr noundef %12, ptr noundef %25, i64 noundef %17) #10
  %26 = add i32 %.029.us.us, %5
  %27 = icmp ult i32 %26, %4
  br i1 %27, label %.lr.ph.split.us.split.us, label %._crit_edge, !llvm.loop !21

.lr.ph.split.us.split:                            ; preds = %.lr.ph.split.us, %.lr.ph.split.us.split
  %.029.us = phi i32 [ %41, %.lr.ph.split.us.split ], [ 0, %.lr.ph.split.us ]
  %28 = tail call ptr @tcg_temp_new_vec(i32 noundef %6) #10
  %29 = tail call ptr @tcg_temp_new_vec(i32 noundef %6) #10
  %30 = tail call ptr @tcg_temp_new_vec(i32 noundef %6) #10
  %31 = load ptr, ptr @tcg_env, align 8
  %32 = add i32 %.029.us, %2
  %33 = zext i32 %32 to i64
  tail call void @tcg_gen_ld_vec(ptr noundef %28, ptr noundef %31, i64 noundef %33) #10
  %34 = load ptr, ptr @tcg_env, align 8
  %35 = add i32 %.029.us, %3
  %36 = zext i32 %35 to i64
  tail call void @tcg_gen_ld_vec(ptr noundef %29, ptr noundef %34, i64 noundef %36) #10
  %37 = load ptr, ptr @tcg_env, align 8
  %38 = add i32 %.029.us, %1
  %39 = zext i32 %38 to i64
  tail call void @tcg_gen_ld_vec(ptr noundef %30, ptr noundef %37, i64 noundef %39) #10
  tail call void %10(i32 noundef %0, ptr noundef %30, ptr noundef %28, ptr noundef %29, i64 noundef %7) #10
  %40 = load ptr, ptr @tcg_env, align 8
  tail call void @tcg_gen_st_vec(ptr noundef %30, ptr noundef %40, i64 noundef %39) #10
  %41 = add i32 %.029.us, %5
  %42 = icmp ult i32 %41, %4
  br i1 %42, label %.lr.ph.split.us.split, label %._crit_edge, !llvm.loop !21

.lr.ph.split:                                     ; preds = %.lr.ph
  br i1 %9, label %.lr.ph.split.split.us, label %.lr.ph.split.split

.lr.ph.split.split.us:                            ; preds = %.lr.ph.split, %.lr.ph.split.split.us
  %.029.us30 = phi i32 [ %56, %.lr.ph.split.split.us ], [ 0, %.lr.ph.split ]
  %43 = tail call ptr @tcg_temp_new_vec(i32 noundef %6) #10
  %44 = tail call ptr @tcg_temp_new_vec(i32 noundef %6) #10
  %45 = tail call ptr @tcg_temp_new_vec(i32 noundef %6) #10
  %46 = load ptr, ptr @tcg_env, align 8
  %47 = add i32 %.029.us30, %2
  %48 = zext i32 %47 to i64
  tail call void @tcg_gen_ld_vec(ptr noundef %43, ptr noundef %46, i64 noundef %48) #10
  %49 = load ptr, ptr @tcg_env, align 8
  %50 = add i32 %.029.us30, %3
  %51 = zext i32 %50 to i64
  tail call void @tcg_gen_ld_vec(ptr noundef %44, ptr noundef %49, i64 noundef %51) #10
  tail call void %10(i32 noundef %0, ptr noundef %45, ptr noundef %43, ptr noundef %44, i64 noundef %7) #10
  %52 = load ptr, ptr @tcg_env, align 8
  %53 = add i32 %.029.us30, %1
  %54 = zext i32 %53 to i64
  tail call void @tcg_gen_st_vec(ptr noundef %45, ptr noundef %52, i64 noundef %54) #10
  %55 = load ptr, ptr @tcg_env, align 8
  tail call void @tcg_gen_st_vec(ptr noundef %43, ptr noundef %55, i64 noundef %48) #10
  %56 = add i32 %.029.us30, %5
  %57 = icmp ult i32 %56, %4
  br i1 %57, label %.lr.ph.split.split.us, label %._crit_edge, !llvm.loop !21

._crit_edge:                                      ; preds = %.lr.ph.split.split, %.lr.ph.split.split.us, %.lr.ph.split.us.split, %.lr.ph.split.us.split.us, %11
  ret void

.lr.ph.split.split:                               ; preds = %.lr.ph.split, %.lr.ph.split.split
  %.029 = phi i32 [ %70, %.lr.ph.split.split ], [ 0, %.lr.ph.split ]
  %58 = tail call ptr @tcg_temp_new_vec(i32 noundef %6) #10
  %59 = tail call ptr @tcg_temp_new_vec(i32 noundef %6) #10
  %60 = tail call ptr @tcg_temp_new_vec(i32 noundef %6) #10
  %61 = load ptr, ptr @tcg_env, align 8
  %62 = add i32 %.029, %2
  %63 = zext i32 %62 to i64
  tail call void @tcg_gen_ld_vec(ptr noundef %58, ptr noundef %61, i64 noundef %63) #10
  %64 = load ptr, ptr @tcg_env, align 8
  %65 = add i32 %.029, %3
  %66 = zext i32 %65 to i64
  tail call void @tcg_gen_ld_vec(ptr noundef %59, ptr noundef %64, i64 noundef %66) #10
  tail call void %10(i32 noundef %0, ptr noundef %60, ptr noundef %58, ptr noundef %59, i64 noundef %7) #10
  %67 = load ptr, ptr @tcg_env, align 8
  %68 = add i32 %.029, %1
  %69 = zext i32 %68 to i64
  tail call void @tcg_gen_st_vec(ptr noundef %60, ptr noundef %67, i64 noundef %69) #10
  %70 = add i32 %.029, %5
  %71 = icmp ult i32 %70, %4
  br i1 %71, label %.lr.ph.split.split, label %._crit_edge, !llvm.loop !21
}